Certificate:
    Data:
        Version: 3 (0x2)
        Serial Number: 3 (0x3)
        Signature Algorithm: sha1WithRSAEncryption
        Issuer: C=KR, ST=Seoul, L=Guro, O=Future Systems, OU=RND, CN=sslplus-ca
        Validity
            Not Before: Feb 18 17:07:19 2012 GMT
            Not After : Feb 15 17:07:19 2022 GMT
        Subject: C=KR, ST=Seoul, O=Future Systems, OU=RND, CN=client
        Subject Public Key Info:
            Public Key Algorithm: rsaEncryption
            RSA Public Key: (2048 bit)
                Modulus (2048 bit):
                    00:c1:dd:5e:76:c2:c1:cb:44:2b:1b:70:74:c9:c0:
                    18:8d:3e:cf:38:d4:98:fd:1b:73:a4:63:70:59:1a:
                    02:dc:4e:2f:78:c8:58:8b:17:78:1c:3a:11:42:15:
                    50:36:fc:47:d4:41:6f:b1:fd:96:70:b4:ee:69:8c:
                    a6:01:ef:39:3d:f5:24:e6:91:71:8b:6b:47:90:93:
                    20:fc:c0:88:36:42:a2:60:b6:f3:09:f9:04:58:c3:
                    0a:75:9e:24:5e:e6:e4:eb:72:2f:36:d8:17:f8:e8:
                    09:da:cf:d5:0f:0a:00:6c:e4:db:8d:78:38:b4:9a:
                    6e:74:e1:13:3f:e1:39:52:82:91:5f:ba:93:07:e0:
                    7b:e1:82:f0:f0:73:53:03:f8:ef:5d:09:cf:a6:c2:
                    f0:39:19:68:83:69:6c:1f:45:83:a6:69:0c:b2:63:
                    65:f3:89:09:27:46:61:d5:2d:27:0b:0d:d4:73:bb:
                    63:b2:99:20:ad:f6:cb:f3:e2:d5:42:f5:cf:8e:a7:
                    11:86:5d:59:9a:3e:c3:9b:73:8a:32:26:9c:e4:d7:
                    da:ac:8d:a3:2c:a8:58:bd:f7:d5:08:5f:14:c4:9f:
                    c1:dc:92:b5:4b:56:04:90:2f:2f:dd:e6:8b:68:a1:
                    dd:d3:23:54:2d:39:5e:a9:72:9c:aa:02:91:e2:9a:
                    7e:e9
                Exponent: 65537 (0x10001)
        X509v3 extensions:
            X509v3 Basic Constraints: 
                CA:FALSE
            Netscape Comment: 
                OpenSSL Generated Certificate
            X509v3 Subject Key Identifier: 
                CA:5F:63:97:17:C1:F2:8A:B0:A1:E8:FB:AA:4A:05:83:FF:8F:7B:EC
            X509v3 Authority Key Identifier: 
                keyid:CC:09:72:56:DA:88:E7:B9:49:63:0F:38:94:67:D0:0A:AA:E4:96:EA

    Signature Algorithm: sha1WithRSAEncryption
        4d:7d:33:57:6c:d3:3a:94:f5:73:a0:74:36:d8:cf:8a:e4:b1:
        47:56:63:00:83:e2:ac:b9:7d:6f:9b:1d:81:32:b9:57:0d:32:
        f6:79:92:b6:30:2a:22:11:cd:aa:0a:74:04:c1:26:ac:a6:c1:
        cc:64:99:15:98:66:3e:f8:6e:41:42:93:2a:eb:54:2d:4c:44:
        c0:cb:df:2f:fe:2b:37:83:bc:19:4f:20:ed:20:fd:4e:13:9d:
        9f:39:8e:22:b0:ca:27:36:0e:1f:45:3e:ce:44:dc:64:7f:98:
        23:1c:7e:bd:28:9f:f3:4c:5b:42:7b:a8:45:d1:5c:77:84:73:
        b7:22:fd:ce:2b:ef:0b:0d:bd:f1:3d:5d:7e:2a:3a:cc:dc:df:
        a3:8e:10:8a:4e:bb:77:0a:d9:30:af:eb:7b:9e:89:0c:71:72:
        85:22:b7:6a:3d:04:5b:f8:bc:86:8c:2e:80:38:e3:fc:d1:d1:
        83:a5:79:9b:76:df:a8:c5:8d:b9:b7:8f:ac:b5:ea:03:2c:51:
        34:61:e7:04:da:39:b0:93:d3:5d:d1:a5:6c:bb:cd:1f:df:6a:
        97:59:7f:6a:e6:62:71:0b:42:48:e1:cd:27:ce:47:a5:89:5e:
        2a:ed:d6:63:4d:9e:8d:6e:6d:b1:4b:b9:1b:5a:2e:d7:06:d9:
        95:e2:f0:b5
-----BEGIN CERTIFICATE-----
MIIDszCCApugAwIBAgIBAzANBgkqhkiG9w0BAQUFADBoMQswCQYDVQQGEwJLUjEO
MAwGA1UECBMFU2VvdWwxDTALBgNVBAcTBEd1cm8xFzAVBgNVBAoTDkZ1dHVyZSBT
eXN0ZW1zMQwwCgYDVQQLEwNSTkQxEzARBgNVBAMTCnNzbHBsdXMtY2EwHhcNMTIw
MjE4MTcwNzE5WhcNMjIwMjE1MTcwNzE5WjBVMQswCQYDVQQGEwJLUjEOMAwGA1UE
CBMFU2VvdWwxFzAVBgNVBAoTDkZ1dHVyZSBTeXN0ZW1zMQwwCgYDVQQLEwNSTkQx
DzANBgNVBAMTBmNsaWVudDCCASIwDQYJKoZIhvcNAQEBBQADggEPADCCAQoCggEB
AMHdXnbCwctEKxtwdMnAGI0+zzjUmP0bc6RjcFkaAtxOL3jIWIsXeBw6EUIVUDb8
R9RBb7H9lnC07mmMpgHvOT31JOaRcYtrR5CTIPzAiDZComC28wn5BFjDCnWeJF7m
5OtyLzbYF/joCdrP1Q8KAGzk2414OLSabnThEz/hOVKCkV+6kwfge+GC8PBzUwP4
710Jz6bC8DkZaINpbB9Fg6ZpDLJjZfOJCSdGYdUtJwsN1HO7Y7KZIK32y/Pi1UL1
z46nEYZdWZo+w5tzijImnOTX2qyNoyyoWL331QhfFMSfwdyStUtWBJAvL93mi2ih
3dMjVC05XqlynKoCkeKafukCAwEAAaN7MHkwCQYDVR0TBAIwADAsBglghkgBhvhC
AQ0EHxYdT3BlblNTTCBHZW5lcmF0ZWQgQ2VydGlmaWNhdGUwHQYDVR0OBBYEFMpf
Y5cXwfKKsKHo+6pKBYP/j3vsMB8GA1UdIwQYMBaAFMwJclbaiOe5SWMPOJRn0Aqq
5JbqMA0GCSqGSIb3DQEBBQUAA4IBAQBNfTNXbNM6lPVzoHQ22M+K5LFHVmMAg+Ks
uX1vmx2BMrlXDTL2eZK2MCoiEc2qCnQEwSaspsHMZJkVmGY++G5BQpMq61QtTETA
y98v/is3g7wZTyDtIP1OE52fOY4isMonNg4fRT7ORNxkf5gjHH69KJ/zTFtCe6hF
0Vx3hHO3Iv3OK+8LDb3xPV1+KjrM3N+jjhCKTrt3Ctkwr+t7nokMcXKFIrdqPQRb
+LyGjC6AOOP80dGDpXmbdt+oxY25t4+steoDLFE0YecE2jmwk9Nd0aVsu80f32qX
WX9q5mJxC0JI4c0nzkeliV4q7dZjTZ6Nbm2xS7kbWi7XBtmV4vC1
-----END CERTIFICATE-----
