Certificate:
    Data:
        Version: 3 (0x2)
        Serial Number: 1 (0x1)
        Signature Algorithm: sha1WithRSAEncryption
        Issuer: C=KR, ST=Seoul, L=Guro, O=Future Systems, OU=RND, CN=sslplus-ca
        Validity
            Not Before: Feb 18 17:05:38 2012 GMT
            Not After : Feb 15 17:05:38 2022 GMT
        Subject: C=KR, ST=Seoul, O=Future Systems, OU=RND, CN=marlin
        Subject Public Key Info:
            Public Key Algorithm: rsaEncryption
            RSA Public Key: (2048 bit)
                Modulus (2048 bit):
                    00:c6:f6:07:2f:29:f5:ea:f0:b1:2a:99:9b:ff:a3:
                    a9:eb:69:3d:26:1f:13:74:5a:ea:aa:68:70:d5:6d:
                    61:5c:4b:90:37:46:a5:de:d9:20:b5:27:bb:f7:cc:
                    b1:ee:b5:cc:c5:ae:7a:f7:a6:f9:64:71:21:1b:3b:
                    4b:23:bc:39:65:a6:8e:28:c2:20:c5:63:07:b8:bb:
                    24:27:b2:6f:d8:ed:69:75:a4:8c:b2:91:20:cf:c9:
                    c3:98:b7:7a:9c:71:39:fd:66:91:3e:f8:4c:b6:9b:
                    a1:46:86:dd:b7:5b:3a:42:fa:71:37:0b:0b:16:d1:
                    c9:fb:d9:37:62:57:86:09:c3:c3:8b:59:89:d5:1c:
                    57:96:ec:a7:e0:34:16:56:8a:34:77:95:70:2b:e6:
                    5c:ec:b2:ec:48:4f:ab:06:0d:4c:bb:99:33:b9:1c:
                    e3:d8:06:81:09:16:ff:47:03:3f:bc:f0:c7:cd:42:
                    07:ae:5c:20:ac:30:8b:0b:24:3a:c3:39:1d:ec:1b:
                    b1:58:24:c7:60:d6:bc:e8:e4:12:7f:03:a4:1f:6a:
                    b7:8b:c8:89:de:22:7f:a3:ae:20:37:8e:d8:d8:07:
                    51:c6:6a:63:67:97:2b:04:25:30:28:63:db:b2:66:
                    81:3b:b1:8f:1d:29:4b:35:a1:64:5d:1a:d0:ab:2c:
                    97:85
                Exponent: 65537 (0x10001)
        X509v3 extensions:
            X509v3 Basic Constraints: 
                CA:FALSE
            Netscape Comment: 
                OpenSSL Generated Certificate
            X509v3 Subject Key Identifier: 
                0E:1D:7E:66:5F:14:C4:60:CE:02:A1:C5:C1:F5:DF:87:8B:BD:24:FA
            X509v3 Authority Key Identifier: 
                keyid:CC:09:72:56:DA:88:E7:B9:49:63:0F:38:94:67:D0:0A:AA:E4:96:EA

    Signature Algorithm: sha1WithRSAEncryption
        14:24:ba:e4:39:fd:ed:7d:99:18:49:8b:3c:d1:7d:c6:0d:b9:
        a9:a1:da:32:ee:ce:df:3b:d1:97:5c:84:61:32:93:2b:56:9d:
        77:67:f0:2c:b2:84:5b:0b:87:3a:ff:27:44:22:01:27:32:fe:
        58:7d:37:a3:63:6c:0d:29:55:80:be:f8:b6:68:07:5c:71:6d:
        ed:ff:40:c0:f3:ed:c8:48:ce:ad:a0:7b:9d:04:f3:26:1e:4b:
        eb:90:9d:da:5b:84:c2:4f:74:e3:c5:8d:db:8a:2a:1f:7a:7e:
        d3:17:45:2a:24:6c:7e:6a:0d:b8:45:08:67:0f:f9:d1:66:75:
        41:d7:dd:fc:30:a1:0c:44:b0:fd:e4:1e:22:37:8e:50:67:78:
        61:8b:b6:c2:39:db:a0:ef:fb:f0:02:99:c8:30:03:35:0a:5a:
        ab:2a:f6:88:d4:49:b7:b7:1e:de:75:6a:cb:a7:14:05:f5:dc:
        1d:97:56:24:37:e0:91:89:bd:f8:b2:44:a2:b0:05:a6:51:18:
        32:3f:03:39:13:c1:c5:28:1b:e4:aa:c7:f4:db:df:32:1a:0f:
        a8:6d:87:46:aa:7d:dc:6f:6a:e8:b1:ee:4d:a1:e3:b5:de:83:
        ab:f2:22:14:f9:a3:ed:bb:4e:0c:66:20:07:77:63:4d:8d:0a:
        7a:0a:e5:1d
-----BEGIN CERTIFICATE-----
MIIDszCCApugAwIBAgIBATANBgkqhkiG9w0BAQUFADBoMQswCQYDVQQGEwJLUjEO
MAwGA1UECBMFU2VvdWwxDTALBgNVBAcTBEd1cm8xFzAVBgNVBAoTDkZ1dHVyZSBT
eXN0ZW1zMQwwCgYDVQQLEwNSTkQxEzARBgNVBAMTCnNzbHBsdXMtY2EwHhcNMTIw
MjE4MTcwNTM4WhcNMjIwMjE1MTcwNTM4WjBVMQswCQYDVQQGEwJLUjEOMAwGA1UE
CBMFU2VvdWwxFzAVBgNVBAoTDkZ1dHVyZSBTeXN0ZW1zMQwwCgYDVQQLEwNSTkQx
DzANBgNVBAMTBm1hcmxpbjCCASIwDQYJKoZIhvcNAQEBBQADggEPADCCAQoCggEB
AMb2By8p9erwsSqZm/+jqetpPSYfE3Ra6qpocNVtYVxLkDdGpd7ZILUnu/fMse61
zMWuevem+WRxIRs7SyO8OWWmjijCIMVjB7i7JCeyb9jtaXWkjLKRIM/Jw5i3epxx
Of1mkT74TLaboUaG3bdbOkL6cTcLCxbRyfvZN2JXhgnDw4tZidUcV5bsp+A0FlaK
NHeVcCvmXOyy7EhPqwYNTLuZM7kc49gGgQkW/0cDP7zwx81CB65cIKwwiwskOsM5
HewbsVgkx2DWvOjkEn8DpB9qt4vIid4if6OuIDeO2NgHUcZqY2eXKwQlMChj27Jm
gTuxjx0pSzWhZF0a0Kssl4UCAwEAAaN7MHkwCQYDVR0TBAIwADAsBglghkgBhvhC
AQ0EHxYdT3BlblNTTCBHZW5lcmF0ZWQgQ2VydGlmaWNhdGUwHQYDVR0OBBYEFA4d
fmZfFMRgzgKhxcH134eLvST6MB8GA1UdIwQYMBaAFMwJclbaiOe5SWMPOJRn0Aqq
5JbqMA0GCSqGSIb3DQEBBQUAA4IBAQAUJLrkOf3tfZkYSYs80X3GDbmpodoy7s7f
O9GXXIRhMpMrVp13Z/AssoRbC4c6/ydEIgEnMv5YfTejY2wNKVWAvvi2aAdccW3t
/0DA8+3ISM6toHudBPMmHkvrkJ3aW4TCT3TjxY3biiofen7TF0UqJGx+ag24RQhn
D/nRZnVB1938MKEMRLD95B4iN45QZ3hhi7bCOdug7/vwApnIMAM1ClqrKvaI1Em3
tx7edWrLpxQF9dwdl1YkN+CRib34skSisAWmURgyPwM5E8HFKBvkqsf0298yGg+o
bYdGqn3cb2rose5NoeO13oOr8iIU+aPtu04MZiAHd2NNjQp6CuUd
-----END CERTIFICATE-----
